target datalayout = "e-m:e-p270:32:32-p271:32:32-p272:64:64-i64:64-i128:128-f80:128-n8:16:32:64-S128"
target triple = "x86_64-pc-linux-gnu"

%struct.mbedtls_cipher_info_t = type { ptr, i32 }
%struct.mbedtls_cipher_context_t = type { ptr, i32, i32, ptr, ptr, [16 x i8], i64, [16 x i8], i64, ptr, ptr }

; Function Attrs: inlinehint nounwind uwtable
define internal i64 @mbedtls_cipher_info_get_iv_size(ptr noundef %0) #3 {
  %2 = alloca i64, align 8
  %3 = alloca ptr, align 8
  store ptr %0, ptr %3, align 8, !tbaa !26
  %4 = load ptr, ptr %3, align 8, !tbaa !26
  %5 = icmp eq ptr %4, null
  br i1 %5, label %6, label %7

6:                                                ; preds = %1
  store i64 0, ptr %2, align 8
  br label %15

7:                                                ; preds = %1
  %8 = load ptr, ptr %3, align 8, !tbaa !26
  %9 = getelementptr inbounds nuw %struct.mbedtls_cipher_info_t, ptr %8, i32 0, i32 1
  %10 = load i32, ptr %9, align 8
  %11 = lshr i32 %10, 5
  %12 = and i32 %11, 7
  %13 = zext i32 %12 to i64
  %14 = shl i64 %13, 2
  store i64 %14, ptr %2, align 8
  br label %15

15:                                               ; preds = %7, %6
  %16 = load i64, ptr %2, align 8
  ret i64 %16
}

; Function Attrs: nounwind uwtable
define internal i32 @mbedtls_cipher_aead_encrypt(ptr noundef %0, ptr noundef %1, i64 noundef %2, ptr noundef %3, i64 noundef %4, ptr noundef %5, i64 noundef %6, ptr noundef %7, ptr noundef %8, ptr noundef %9, i64 noundef %10) #0 {
  %12 = alloca i32, align 4
  %13 = alloca ptr, align 8
  %14 = alloca ptr, align 8
  %15 = alloca i64, align 8
  %16 = alloca ptr, align 8
  %17 = alloca i64, align 8
  %18 = alloca ptr, align 8
  %19 = alloca i64, align 8
  %20 = alloca ptr, align 8
  %21 = alloca ptr, align 8
  %22 = alloca ptr, align 8
  %23 = alloca i64, align 8
  store ptr %0, ptr %13, align 8, !tbaa !29
  store ptr %1, ptr %14, align 8, !tbaa !18
  store i64 %2, ptr %15, align 8, !tbaa !43
  store ptr %3, ptr %16, align 8, !tbaa !18
  store i64 %4, ptr %17, align 8, !tbaa !43
  store ptr %5, ptr %18, align 8, !tbaa !18
  store i64 %6, ptr %19, align 8, !tbaa !43
  store ptr %7, ptr %20, align 8, !tbaa !18
  store ptr %8, ptr %21, align 8, !tbaa !46
  store ptr %9, ptr %22, align 8, !tbaa !18
  store i64 %10, ptr %23, align 8, !tbaa !43
  %24 = load ptr, ptr %13, align 8, !tbaa !29
  %25 = getelementptr inbounds nuw %struct.mbedtls_cipher_context_t, ptr %24, i32 0, i32 0
  %26 = load ptr, ptr %25, align 8, !tbaa !36
  %27 = getelementptr inbounds nuw %struct.mbedtls_cipher_info_t, ptr %26, i32 0, i32 1
  %28 = load i32, ptr %27, align 8
  %29 = lshr i32 %28, 12
  %30 = and i32 %29, 15
  %31 = icmp eq i32 6, %30
  br i1 %31, label %32, label %48

32:                                               ; preds = %11
  %33 = load i64, ptr %19, align 8, !tbaa !43
  %34 = load ptr, ptr %21, align 8, !tbaa !46
  store i64 %33, ptr %34, align 8, !tbaa !43
  %35 = load ptr, ptr %13, align 8, !tbaa !29
  %36 = getelementptr inbounds nuw %struct.mbedtls_cipher_context_t, ptr %35, i32 0, i32 9
  %37 = load ptr, ptr %36, align 8, !tbaa !35
  %38 = load i64, ptr %19, align 8, !tbaa !43
  %39 = load ptr, ptr %14, align 8, !tbaa !18
  %40 = load i64, ptr %15, align 8, !tbaa !43
  %41 = load ptr, ptr %16, align 8, !tbaa !18
  %42 = load i64, ptr %17, align 8, !tbaa !43
  %43 = load ptr, ptr %18, align 8, !tbaa !18
  %44 = load ptr, ptr %20, align 8, !tbaa !18
  %45 = load i64, ptr %23, align 8, !tbaa !43
  %46 = load ptr, ptr %22, align 8, !tbaa !18
  %47 = call i32 @mbedtls_gcm_crypt_and_tag(ptr noundef %37, i32 noundef 1, i64 noundef %38, ptr noundef %39, i64 noundef %40, ptr noundef %41, i64 noundef %42, ptr noundef %43, ptr noundef %44, i64 noundef %45, ptr noundef %46)
  store i32 %47, ptr %12, align 4
  br label %108

48:                                               ; preds = %11
  %49 = load ptr, ptr %13, align 8, !tbaa !29
  %50 = getelementptr inbounds nuw %struct.mbedtls_cipher_context_t, ptr %49, i32 0, i32 0
  %51 = load ptr, ptr %50, align 8, !tbaa !36
  %52 = getelementptr inbounds nuw %struct.mbedtls_cipher_info_t, ptr %51, i32 0, i32 1
  %53 = load i32, ptr %52, align 8
  %54 = lshr i32 %53, 12
  %55 = and i32 %54, 15
  %56 = icmp eq i32 8, %55
  br i1 %56, label %57, label %73

57:                                               ; preds = %48
  %58 = load i64, ptr %19, align 8, !tbaa !43
  %59 = load ptr, ptr %21, align 8, !tbaa !46
  store i64 %58, ptr %59, align 8, !tbaa !43
  %60 = load ptr, ptr %13, align 8, !tbaa !29
  %61 = getelementptr inbounds nuw %struct.mbedtls_cipher_context_t, ptr %60, i32 0, i32 9
  %62 = load ptr, ptr %61, align 8, !tbaa !35
  %63 = load i64, ptr %19, align 8, !tbaa !43
  %64 = load ptr, ptr %14, align 8, !tbaa !18
  %65 = load i64, ptr %15, align 8, !tbaa !43
  %66 = load ptr, ptr %16, align 8, !tbaa !18
  %67 = load i64, ptr %17, align 8, !tbaa !43
  %68 = load ptr, ptr %18, align 8, !tbaa !18
  %69 = load ptr, ptr %20, align 8, !tbaa !18
  %70 = load ptr, ptr %22, align 8, !tbaa !18
  %71 = load i64, ptr %23, align 8, !tbaa !43
  %72 = call i32 @mbedtls_ccm_encrypt_and_tag(ptr noundef %62, i64 noundef %63, ptr noundef %64, i64 noundef %65, ptr noundef %66, i64 noundef %67, ptr noundef %68, ptr noundef %69, ptr noundef %70, i64 noundef %71)
  store i32 %72, ptr %12, align 4
  br label %108

73:                                               ; preds = %48
  %74 = load ptr, ptr %13, align 8, !tbaa !29
  %75 = getelementptr inbounds nuw %struct.mbedtls_cipher_context_t, ptr %74, i32 0, i32 0
  %76 = load ptr, ptr %75, align 8, !tbaa !36
  %77 = getelementptr inbounds nuw %struct.mbedtls_cipher_info_t, ptr %76, i32 0, i32 1
  %78 = load i32, ptr %77, align 8
  %79 = lshr i32 %78, 16
  %80 = and i32 %79, 255
  %81 = icmp eq i32 77, %80
  br i1 %81, label %82, label %107

82:                                               ; preds = %73
  %83 = load i64, ptr %15, align 8, !tbaa !43
  %84 = load ptr, ptr %13, align 8, !tbaa !29
  %85 = getelementptr inbounds nuw %struct.mbedtls_cipher_context_t, ptr %84, i32 0, i32 0
  %86 = load ptr, ptr %85, align 8, !tbaa !36
  %87 = call i64 @mbedtls_cipher_info_get_iv_size(ptr noundef %86)
  %88 = icmp ne i64 %83, %87
  br i1 %88, label %92, label %89

89:                                               ; preds = %82
  %90 = load i64, ptr %23, align 8, !tbaa !43
  %91 = icmp ne i64 %90, 16
  br i1 %91, label %92, label %93

92:                                               ; preds = %89, %82
  store i32 -24832, ptr %12, align 4
  br label %108

93:                                               ; preds = %89
  %94 = load i64, ptr %19, align 8, !tbaa !43
  %95 = load ptr, ptr %21, align 8, !tbaa !46
  store i64 %94, ptr %95, align 8, !tbaa !43
  %96 = load ptr, ptr %13, align 8, !tbaa !29
  %97 = getelementptr inbounds nuw %struct.mbedtls_cipher_context_t, ptr %96, i32 0, i32 9
  %98 = load ptr, ptr %97, align 8, !tbaa !35
  %99 = load i64, ptr %19, align 8, !tbaa !43
  %100 = load ptr, ptr %14, align 8, !tbaa !18
  %101 = load ptr, ptr %16, align 8, !tbaa !18
  %102 = load i64, ptr %17, align 8, !tbaa !43
  %103 = load ptr, ptr %18, align 8, !tbaa !18
  %104 = load ptr, ptr %20, align 8, !tbaa !18
  %105 = load ptr, ptr %22, align 8, !tbaa !18
  %106 = call i32 @mbedtls_chachapoly_encrypt_and_tag(ptr noundef %98, i64 noundef %99, ptr noundef %100, ptr noundef %101, i64 noundef %102, ptr noundef %103, ptr noundef %104, ptr noundef %105)
  store i32 %106, ptr %12, align 4
  br label %108

107:                                              ; preds = %73
  store i32 -24704, ptr %12, align 4
  br label %108

108:                                              ; preds = %107, %93, %92, %57, %32
  %109 = load i32, ptr %12, align 4
  ret i32 %109
}

; Function Attrs: nounwind uwtable
define hidden i32 @mbedtls_cipher_auth_encrypt_ext(ptr noundef %0, ptr noundef %1, i64 noundef %2, ptr noundef %3, i64 noundef %4, ptr noundef %5, i64 noundef %6, ptr noundef %7, i64 noundef %8, ptr noundef %9, i64 noundef %10) #0 {
  %12 = alloca i32, align 4
  %13 = alloca ptr, align 8
  %14 = alloca ptr, align 8
  %15 = alloca i64, align 8
  %16 = alloca ptr, align 8
  %17 = alloca i64, align 8
  %18 = alloca ptr, align 8
  %19 = alloca i64, align 8
  %20 = alloca ptr, align 8
  %21 = alloca i64, align 8
  %22 = alloca ptr, align 8
  %23 = alloca i64, align 8
  %24 = alloca i32, align 4
  %25 = alloca i32, align 4
  %26 = alloca i32, align 4
  store ptr %0, ptr %13, align 8, !tbaa !29
  store ptr %1, ptr %14, align 8, !tbaa !18
  store i64 %2, ptr %15, align 8, !tbaa !43
  store ptr %3, ptr %16, align 8, !tbaa !18
  store i64 %4, ptr %17, align 8, !tbaa !43
  store ptr %5, ptr %18, align 8, !tbaa !18
  store i64 %6, ptr %19, align 8, !tbaa !43
  store ptr %7, ptr %20, align 8, !tbaa !18
  store i64 %8, ptr %21, align 8, !tbaa !43
  store ptr %9, ptr %22, align 8, !tbaa !46
  store i64 %10, ptr %23, align 8, !tbaa !43
  %27 = load ptr, ptr %13, align 8, !tbaa !29
  %28 = getelementptr inbounds nuw %struct.mbedtls_cipher_context_t, ptr %27, i32 0, i32 0
  %29 = load ptr, ptr %28, align 8, !tbaa !36
  %30 = getelementptr inbounds nuw %struct.mbedtls_cipher_info_t, ptr %29, i32 0, i32 1
  %31 = load i32, ptr %30, align 8
  %32 = lshr i32 %31, 12
  %33 = and i32 %32, 15
  %34 = icmp eq i32 12, %33
  br i1 %34, label %44, label %35

35:                                               ; preds = %11
  %36 = load ptr, ptr %13, align 8, !tbaa !29
  %37 = getelementptr inbounds nuw %struct.mbedtls_cipher_context_t, ptr %36, i32 0, i32 0
  %38 = load ptr, ptr %37, align 8, !tbaa !36
  %39 = getelementptr inbounds nuw %struct.mbedtls_cipher_info_t, ptr %38, i32 0, i32 1
  %40 = load i32, ptr %39, align 8
  %41 = lshr i32 %40, 12
  %42 = and i32 %41, 15
  %43 = icmp eq i32 13, %42
  br i1 %43, label %44, label %75

44:                                               ; preds = %35, %11
  call void @llvm.lifetime.start.p0(i64 4, ptr %24) #7
  %45 = load ptr, ptr %13, align 8, !tbaa !29
  %46 = getelementptr inbounds nuw %struct.mbedtls_cipher_context_t, ptr %45, i32 0, i32 0
  %47 = load ptr, ptr %46, align 8, !tbaa !36
  %48 = getelementptr inbounds nuw %struct.mbedtls_cipher_info_t, ptr %47, i32 0, i32 1
  %49 = load i32, ptr %48, align 8
  %50 = lshr i32 %49, 12
  %51 = and i32 %50, 15
  %52 = icmp eq i32 12, %51
  %53 = select i1 %52, i32 0, i32 1
  store i32 %53, ptr %24, align 4, !tbaa !3
  %54 = load i64, ptr %15, align 8, !tbaa !43
  %55 = icmp ne i64 %54, 0
  br i1 %55, label %62, label %56

56:                                               ; preds = %44
  %57 = load i64, ptr %23, align 8, !tbaa !43
  %58 = icmp ne i64 %57, 0
  br i1 %58, label %62, label %59

59:                                               ; preds = %56
  %60 = load i64, ptr %17, align 8, !tbaa !43
  %61 = icmp ne i64 %60, 0
  br i1 %61, label %62, label %63

62:                                               ; preds = %59, %56, %44
  store i32 -24832, ptr %12, align 4
  store i32 1, ptr %25, align 4
  br label %74

63:                                               ; preds = %59
  %64 = load ptr, ptr %13, align 8, !tbaa !29
  %65 = getelementptr inbounds nuw %struct.mbedtls_cipher_context_t, ptr %64, i32 0, i32 9
  %66 = load ptr, ptr %65, align 8, !tbaa !35
  %67 = load i32, ptr %24, align 4, !tbaa !3
  %68 = load ptr, ptr %18, align 8, !tbaa !18
  %69 = load i64, ptr %19, align 8, !tbaa !43
  %70 = load ptr, ptr %20, align 8, !tbaa !18
  %71 = load ptr, ptr %22, align 8, !tbaa !46
  %72 = load i64, ptr %21, align 8, !tbaa !43
  %73 = call i32 @mbedtls_nist_kw_wrap(ptr noundef %66, i32 noundef %67, ptr noundef %68, i64 noundef %69, ptr noundef %70, ptr noundef %71, i64 noundef %72)
  store i32 %73, ptr %12, align 4
  store i32 1, ptr %25, align 4
  br label %74

74:                                               ; preds = %63, %62
  call void @llvm.lifetime.end.p0(i64 4, ptr %24) #7
  br label %102

75:                                               ; preds = %35
  %76 = load i64, ptr %21, align 8, !tbaa !43
  %77 = load i64, ptr %19, align 8, !tbaa !43
  %78 = load i64, ptr %23, align 8, !tbaa !43
  %79 = add i64 %77, %78
  %80 = icmp ult i64 %76, %79
  br i1 %80, label %81, label %82

81:                                               ; preds = %75
  store i32 -24832, ptr %12, align 4
  br label %102

82:                                               ; preds = %75
  call void @llvm.lifetime.start.p0(i64 4, ptr %26) #7
  %83 = load ptr, ptr %13, align 8, !tbaa !29
  %84 = load ptr, ptr %14, align 8, !tbaa !18
  %85 = load i64, ptr %15, align 8, !tbaa !43
  %86 = load ptr, ptr %16, align 8, !tbaa !18
  %87 = load i64, ptr %17, align 8, !tbaa !43
  %88 = load ptr, ptr %18, align 8, !tbaa !18
  %89 = load i64, ptr %19, align 8, !tbaa !43
  %90 = load ptr, ptr %20, align 8, !tbaa !18
  %91 = load ptr, ptr %22, align 8, !tbaa !46
  %92 = load ptr, ptr %20, align 8, !tbaa !18
  %93 = load i64, ptr %19, align 8, !tbaa !43
  %94 = getelementptr inbounds nuw i8, ptr %92, i64 %93
  %95 = load i64, ptr %23, align 8, !tbaa !43
  %96 = call i32 @mbedtls_cipher_aead_encrypt(ptr noundef %83, ptr noundef %84, i64 noundef %85, ptr noundef %86, i64 noundef %87, ptr noundef %88, i64 noundef %89, ptr noundef %90, ptr noundef %91, ptr noundef %94, i64 noundef %95)
  store i32 %96, ptr %26, align 4, !tbaa !3
  %97 = load i64, ptr %23, align 8, !tbaa !43
  %98 = load ptr, ptr %22, align 8, !tbaa !46
  %99 = load i64, ptr %98, align 8, !tbaa !43
  %100 = add i64 %99, %97
  store i64 %100, ptr %98, align 8, !tbaa !43
  %101 = load i32, ptr %26, align 4, !tbaa !3
  store i32 %101, ptr %12, align 4
  store i32 1, ptr %25, align 4
  call void @llvm.lifetime.end.p0(i64 4, ptr %26) #7
  br label %102

102:                                              ; preds = %82, %81, %74
  %103 = load i32, ptr %12, align 4
  ret i32 %103
}