; Function Attrs: nounwind uwtable
define hidden i32 @mbedtls_cipher_auth_encrypt_ext(ptr noundef readonly captures(none) %0, ptr noundef %1, i64 noundef %2, ptr noundef %3, i64 noundef %4, ptr noundef %5, i64 noundef %6, ptr noundef %7, i64 noundef %8, ptr noundef %9, i64 noundef %10) local_unnamed_addr #8 {
  %12 = load ptr, ptr %0, align 8, !tbaa !29
  %13 = getelementptr inbounds nuw i8, ptr %12, i64 8
  %14 = load i32, ptr %13, align 8
  %15 = lshr i32 %14, 12
  %16 = and i32 %15, 15
  %17 = and i32 %14, 57344
  %switch = icmp eq i32 %17, 49152
  br i1 %switch, label %18, label %28

18:                                               ; preds = %11
  %19 = or i64 %4, %2
  %20 = or i64 %19, %10
  %or.cond3.not = icmp eq i64 %20, 0
  br i1 %or.cond3.not, label %21, label %55

21:                                               ; preds = %18
  %22 = and i32 %14, 53248
  %23 = icmp ne i32 %22, 49152
  %24 = zext i1 %23 to i32
  %25 = getelementptr inbounds nuw i8, ptr %0, i64 80
  %26 = load ptr, ptr %25, align 8, !tbaa !28
  %27 = tail call i32 @mbedtls_nist_kw_wrap(ptr noundef %26, i32 noundef %24, ptr noundef %5, i64 noundef %6, ptr noundef %7, ptr noundef %9, i64 noundef %8) #15
  br label %55

28:                                               ; preds = %11
  %29 = add i64 %10, %6
  %30 = icmp ult i64 %8, %29
  br i1 %30, label %55, label %31

31:                                               ; preds = %28
  %32 = getelementptr inbounds nuw i8, ptr %7, i64 %6
  switch i32 %16, label %41 [
    i32 6, label %33
    i32 8, label %37
  ]

33:                                               ; preds = %31
  store i64 %6, ptr %9, align 8, !tbaa !37
  %34 = getelementptr inbounds nuw i8, ptr %0, i64 80
  %35 = load ptr, ptr %34, align 8, !tbaa !28
  %36 = tail call i32 @mbedtls_gcm_crypt_and_tag(ptr noundef %35, i32 noundef 1, i64 noundef %6, ptr noundef %1, i64 noundef %2, ptr noundef %3, i64 noundef %4, ptr noundef %5, ptr noundef %7, i64 noundef %10, ptr noundef %32) #15
  br label %mbedtls_cipher_aead_encrypt.exit

37:                                               ; preds = %31
  store i64 %6, ptr %9, align 8, !tbaa !37
  %38 = getelementptr inbounds nuw i8, ptr %0, i64 80
  %39 = load ptr, ptr %38, align 8, !tbaa !28
  %40 = tail call i32 @mbedtls_ccm_encrypt_and_tag(ptr noundef %39, i64 noundef %6, ptr noundef %1, i64 noundef %2, ptr noundef %3, i64 noundef %4, ptr noundef %5, ptr noundef %7, ptr noundef %32, i64 noundef %10) #15
  br label %mbedtls_cipher_aead_encrypt.exit

41:                                               ; preds = %31
  %42 = and i32 %14, 16711680
  %43 = icmp eq i32 %42, 5046272
  br i1 %43, label %mbedtls_cipher_info_get_iv_size.exit.i, label %mbedtls_cipher_aead_encrypt.exit

mbedtls_cipher_info_get_iv_size.exit.i:           ; preds = %41
  %44 = lshr i32 %14, 3
  %45 = and i32 %44, 28
  %46 = zext nneg i32 %45 to i64
  %47 = icmp ne i64 %2, %46
  %48 = icmp ne i64 %10, 16
  %or.cond.i = or i1 %48, %47
  br i1 %or.cond.i, label %mbedtls_cipher_aead_encrypt.exit, label %49

49:                                               ; preds = %mbedtls_cipher_info_get_iv_size.exit.i
  store i64 %6, ptr %9, align 8, !tbaa !37
  %50 = getelementptr inbounds nuw i8, ptr %0, i64 80
  %51 = load ptr, ptr %50, align 8, !tbaa !28
  %52 = tail call i32 @mbedtls_chachapoly_encrypt_and_tag(ptr noundef %51, i64 noundef %6, ptr noundef %1, ptr noundef %3, i64 noundef %4, ptr noundef %5, ptr noundef %7, ptr noundef %32) #15
  br label %mbedtls_cipher_aead_encrypt.exit

mbedtls_cipher_aead_encrypt.exit:                 ; preds = %33, %37, %41, %mbedtls_cipher_info_get_iv_size.exit.i, %49
  %.0.i = phi i32 [ %36, %33 ], [ %40, %37 ], [ %52, %49 ], [ -24832, %mbedtls_cipher_info_get_iv_size.exit.i ], [ -24704, %41 ]
  %53 = load i64, ptr %9, align 8, !tbaa !37
  %54 = add i64 %53, %10
  store i64 %54, ptr %9, align 8, !tbaa !37
  br label %55

55:                                               ; preds = %28, %21, %18, %mbedtls_cipher_aead_encrypt.exit
  %.1 = phi i32 [ %.0.i, %mbedtls_cipher_aead_encrypt.exit ], [ %27, %21 ], [ -24832, %18 ], [ -24832, %28 ]
  ret i32 %.1
}